target datalayout = "e-m:e-p270:32:32-p271:32:32-p272:64:64-i64:64-i128:128-f80:128-n8:16:32:64-S128"
target triple = "x86_64-pc-linux-gnu"

%struct.RBasic = type { i64, i64 }
%struct.RArray = type { %struct.RBasic, %union.anon }
%union.anon = type { %struct.anon }
%struct.anon = type { i64, %union.anon.0, ptr }
%union.anon.0 = type { i64 }

@rb_cArray = dso_local global i64 0, align 8

; Function Attrs: inlinehint nounwind sspstrong willreturn memory(read) uwtable
define internal i64 @RB_FL_TEST_RAW(i64 noundef %0, i64 noundef %1) #2 {
  %3 = alloca i64, align 8
  %4 = alloca i64, align 8
  store i64 %0, ptr %3, align 8, !tbaa !7
  store i64 %1, ptr %4, align 8, !tbaa !7
  %5 = load i64, ptr %3, align 8, !tbaa !7
  %6 = inttoptr i64 %5 to ptr
  %7 = getelementptr inbounds nuw %struct.RBasic, ptr %6, i32 0, i32 0
  %8 = load i64, ptr %7, align 8, !tbaa !11
  %9 = load i64, ptr %4, align 8, !tbaa !7
  %10 = and i64 %8, %9
  ret i64 %10
}

; Function Attrs: inlinehint nounwind sspstrong uwtable
define internal zeroext i1 @ARY_EMBED_P(i64 noundef %0) #1 {
  %2 = alloca i64, align 8
  store i64 %0, ptr %2, align 8, !tbaa !7
  %3 = load i64, ptr %2, align 8, !tbaa !7
  %4 = call i64 @RB_FL_TEST_RAW(i64 noundef %3, i64 noundef 8192) #26
  %5 = icmp ne i64 %4, 0
  ret i1 %5
}

; Function Attrs: nounwind sspstrong uwtable
define internal void @ary_memcpy(i64 noundef %0, i64 noundef %1, i64 noundef %2, ptr noundef %3) #0 {
  %5 = alloca i64, align 8
  %6 = alloca i64, align 8
  %7 = alloca i64, align 8
  %8 = alloca ptr, align 8
  store i64 %0, ptr %5, align 8, !tbaa !7
  store i64 %1, ptr %6, align 8, !tbaa !7
  store i64 %2, ptr %7, align 8, !tbaa !7
  store ptr %3, ptr %8, align 8, !tbaa !14
  %9 = load i64, ptr %5, align 8, !tbaa !7
  %10 = load i64, ptr %6, align 8, !tbaa !7
  %11 = load i64, ptr %7, align 8, !tbaa !7
  %12 = load ptr, ptr %8, align 8, !tbaa !14
  %13 = load i64, ptr %5, align 8, !tbaa !7
  call void @ary_memcpy0(i64 noundef %9, i64 noundef %10, i64 noundef %11, ptr noundef %12, i64 noundef %13)
  ret void
}

; Function Attrs: nounwind sspstrong uwtable
define hidden i64 @rb_ary_tmp_new_from_values(i64 noundef %0, i64 noundef %1, ptr noundef %2) #0 {
  %4 = alloca i64, align 8
  %5 = alloca i64, align 8
  %6 = alloca ptr, align 8
  %7 = alloca i64, align 8
  %8 = alloca i64, align 8
  store i64 %0, ptr %4, align 8, !tbaa !7
  store i64 %1, ptr %5, align 8, !tbaa !7
  store ptr %2, ptr %6, align 8, !tbaa !14
  call void @llvm.lifetime.start.p0(i64 8, ptr %7) #27
  %9 = load i64, ptr %4, align 8, !tbaa !7
  %10 = load i64, ptr %5, align 8, !tbaa !7
  %11 = call i64 @ary_new(i64 noundef %9, i64 noundef %10)
  store i64 %11, ptr %7, align 8, !tbaa !7
  %12 = load i64, ptr %5, align 8, !tbaa !7
  %13 = icmp sgt i64 %12, 0
  br i1 %13, label %14, label %53

14:                                               ; preds = %3
  %15 = load ptr, ptr %6, align 8, !tbaa !14
  %16 = icmp ne ptr %15, null
  br i1 %16, label %17, label %53

17:                                               ; preds = %14
  %18 = load i64, ptr %7, align 8, !tbaa !7
  %19 = load i64, ptr %5, align 8, !tbaa !7
  %20 = load ptr, ptr %6, align 8, !tbaa !14
  call void @ary_memcpy(i64 noundef %18, i64 noundef 0, i64 noundef %19, ptr noundef %20)
  br label %21

21:                                               ; preds = %17
  %22 = load i64, ptr %7, align 8, !tbaa !7
  %23 = call zeroext i1 @ARY_EMBED_P(i64 noundef %22)
  br i1 %23, label %24, label %41

24:                                               ; preds = %21
  br label %25

25:                                               ; preds = %24
  call void @llvm.lifetime.start.p0(i64 8, ptr %8) #27
  %26 = load i64, ptr %5, align 8, !tbaa !7
  store i64 %26, ptr %8, align 8, !tbaa !7
  %27 = load i64, ptr %7, align 8, !tbaa !7
  %28 = inttoptr i64 %27 to ptr
  %29 = getelementptr inbounds nuw %struct.RBasic, ptr %28, i32 0, i32 0
  %30 = load i64, ptr %29, align 8, !tbaa !11
  %31 = and i64 %30, -4161537
  store i64 %31, ptr %29, align 8, !tbaa !11
  %32 = load i64, ptr %8, align 8, !tbaa !7
  %33 = shl i64 %32, 15
  %34 = load i64, ptr %7, align 8, !tbaa !7
  %35 = inttoptr i64 %34 to ptr
  %36 = getelementptr inbounds nuw %struct.RBasic, ptr %35, i32 0, i32 0
  %37 = load i64, ptr %36, align 8, !tbaa !11
  %38 = or i64 %37, %33
  store i64 %38, ptr %36, align 8, !tbaa !11
  call void @llvm.lifetime.end.p0(i64 8, ptr %8) #27
  br label %39

39:                                               ; preds = %25
  br label %40

40:                                               ; preds = %39
  br label %50

41:                                               ; preds = %21
  br label %42

42:                                               ; preds = %41
  %43 = load i64, ptr %5, align 8, !tbaa !7
  %44 = load i64, ptr %7, align 8, !tbaa !7
  %45 = inttoptr i64 %44 to ptr
  %46 = getelementptr inbounds nuw %struct.RArray, ptr %45, i32 0, i32 1
  %47 = getelementptr inbounds nuw %struct.anon, ptr %46, i32 0, i32 0
  store i64 %43, ptr %47, align 8, !tbaa !13
  br label %48

48:                                               ; preds = %42
  br label %49

49:                                               ; preds = %48
  br label %50

50:                                               ; preds = %49, %40
  br label %51

51:                                               ; preds = %50
  br label %52

52:                                               ; preds = %51
  br label %53

53:                                               ; preds = %52, %14, %3
  %54 = load i64, ptr %7, align 8, !tbaa !7
  call void @llvm.lifetime.end.p0(i64 8, ptr %7) #27
  ret i64 %54
}

; Function Attrs: nounwind sspstrong uwtable
define dso_local i64 @rb_ary_new_from_values(i64 noundef %0, ptr noundef %1) #0 {
  %3 = alloca i64, align 8
  %4 = alloca ptr, align 8
  store i64 %0, ptr %3, align 8, !tbaa !7
  store ptr %1, ptr %4, align 8, !tbaa !14
  %5 = load i64, ptr @rb_cArray, align 8, !tbaa !7
  %6 = load i64, ptr %3, align 8, !tbaa !7
  %7 = load ptr, ptr %4, align 8, !tbaa !14
  %8 = call i64 @rb_ary_tmp_new_from_values(i64 noundef %5, i64 noundef %6, ptr noundef %7)
  ret i64 %8
}