; Function Attrs: nounwind sspstrong uwtable
define dso_local i64 @rb_ary_new_from_values(i64 noundef %0, ptr noundef readonly captures(address_is_null) %1) local_unnamed_addr #4 {
  %3 = load i64, ptr @rb_cArray, align 8, !tbaa !13
  %4 = tail call fastcc i64 @ary_new(i64 noundef %3, i64 noundef %0)
  %5 = icmp sgt i64 %0, 0
  %6 = icmp ne ptr %1, null
  %or.cond.i = and i1 %5, %6
  br i1 %or.cond.i, label %7, label %rb_ary_tmp_new_from_values.exit

7:                                                ; preds = %2
  tail call fastcc void @ary_memcpy0(i64 noundef %4, i64 noundef 0, i64 noundef %0, ptr noundef nonnull readonly %1, i64 noundef %4)
  %8 = inttoptr i64 %4 to ptr
  %9 = load i64, ptr %8, align 8, !tbaa !7
  %10 = and i64 %9, 8192
  %.not.i = icmp eq i64 %10, 0
  br i1 %.not.i, label %15, label %11

11:                                               ; preds = %7
  %12 = and i64 %9, -4161537
  %13 = shl i64 %0, 15
  %14 = or i64 %12, %13
  store i64 %14, ptr %8, align 8, !tbaa !7
  br label %rb_ary_tmp_new_from_values.exit

15:                                               ; preds = %7
  %16 = getelementptr inbounds nuw i8, ptr %8, i64 16
  store i64 %0, ptr %16, align 8, !tbaa !12
  br label %rb_ary_tmp_new_from_values.exit

rb_ary_tmp_new_from_values.exit:                  ; preds = %2, %11, %15
  ret i64 %4
}